; Function Attrs: nounwind uwtable
define hidden void @_glfwDestroyWindowNull(ptr noundef %0) local_unnamed_addr #0 {
  %2 = getelementptr inbounds nuw i8, ptr %0, i64 80
  %3 = load ptr, ptr %2, align 8, !tbaa !3
  %.not = icmp eq ptr %3, null
  br i1 %.not, label %releaseMonitor.exit, label %4

4:                                                ; preds = %1
  %5 = getelementptr inbounds nuw i8, ptr %3, i64 144
  %6 = load ptr, ptr %5, align 8, !tbaa !154
  %.not.i = icmp eq ptr %6, %0
  br i1 %.not.i, label %7, label %releaseMonitor.exit

7:                                                ; preds = %4
  tail call void @_glfwInputMonitorWindow(ptr noundef nonnull %3, ptr noundef null) #11
  br label %releaseMonitor.exit

releaseMonitor.exit:                              ; preds = %7, %4, %1
  %8 = load ptr, ptr getelementptr inbounds nuw (i8, ptr @_glfw, i64 142760), align 8, !tbaa !82
  %9 = icmp eq ptr %8, %0
  br i1 %9, label %10, label %11

10:                                               ; preds = %releaseMonitor.exit
  store ptr null, ptr getelementptr inbounds nuw (i8, ptr @_glfw, i64 142760), align 8, !tbaa !82
  br label %11

11:                                               ; preds = %10, %releaseMonitor.exit
  %12 = getelementptr inbounds nuw i8, ptr %0, i64 640
  %13 = load ptr, ptr %12, align 8, !tbaa !163
  %.not6 = icmp eq ptr %13, null
  br i1 %.not6, label %15, label %14

14:                                               ; preds = %11
  tail call void %13(ptr noundef nonnull %0) #11
  br label %15

15:                                               ; preds = %14, %11
  ret void
}